target datalayout = "e-m:e-p270:32:32-p271:32:32-p272:64:64-i64:64-i128:128-f80:128-n8:16:32:64-S128"
target triple = "x86_64-unknown-linux-gnu"

%"class.QuantLib::LecuyerUniformRng" = type { i64, i64, i64, %"class.std::vector" }
%"class.std::vector" = type { %"struct.std::_Vector_base" }
%"struct.std::_Vector_base" = type { %"struct.std::_Vector_base<long, std::allocator<long>>::_Vector_impl" }
%"struct.std::_Vector_base<long, std::allocator<long>>::_Vector_impl" = type { %"struct.std::_Vector_base<long, std::allocator<long>>::_Vector_impl_data" }
%"struct.std::_Vector_base<long, std::allocator<long>>::_Vector_impl_data" = type { ptr, ptr, ptr }
%"struct.QuantLib::Sample" = type { double, double }

; Function Attrs: mustprogress nounwind uwtable
define linkonce_odr void @_ZN8QuantLib6SampleIdEC2Edd(ptr noundef nonnull align 8 dereferenceable(16) %this, double noundef %value, double noundef %weight) unnamed_addr #2 comdat align 2 {
entry:
  %this.addr = alloca ptr, align 8
  %value.addr = alloca double, align 8
  %weight.addr = alloca double, align 8
  store ptr %this, ptr %this.addr, align 8, !tbaa !3
  store double %value, ptr %value.addr, align 8, !tbaa !24
  store double %weight, ptr %weight.addr, align 8, !tbaa !24
  %this1 = load ptr, ptr %this.addr, align 8
  %value2 = getelementptr inbounds nuw %"struct.QuantLib::Sample", ptr %this1, i32 0, i32 0
  %0 = load double, ptr %value.addr, align 8, !tbaa !24
  store double %0, ptr %value2, align 8, !tbaa !26
  %weight3 = getelementptr inbounds nuw %"struct.QuantLib::Sample", ptr %this1, i32 0, i32 1
  %1 = load double, ptr %weight.addr, align 8, !tbaa !24
  store double %1, ptr %weight3, align 8, !tbaa !28
  ret void
}

; Function Attrs: mustprogress nounwind uwtable
define linkonce_odr noundef nonnull align 8 dereferenceable(8) ptr @_ZNSt6vectorIlSaIlEEixEm(ptr noundef nonnull align 8 dereferenceable(24) %this, i64 noundef %__n) #2 comdat align 2 {
entry:
  %this.addr = alloca ptr, align 8
  %__n.addr = alloca i64, align 8
  store ptr %this, ptr %this.addr, align 8, !tbaa !3
  store i64 %__n, ptr %__n.addr, align 8, !tbaa !7
  %this1 = load ptr, ptr %this.addr, align 8
  %_M_impl = getelementptr inbounds nuw %"struct.std::_Vector_base", ptr %this1, i32 0, i32 0
  %_M_start = getelementptr inbounds nuw %"struct.std::_Vector_base<long, std::allocator<long>>::_Vector_impl_data", ptr %_M_impl, i32 0, i32 0
  %0 = load ptr, ptr %_M_start, align 8, !tbaa !22
  %1 = load i64, ptr %__n.addr, align 8, !tbaa !7
  %add.ptr = getelementptr inbounds nuw i64, ptr %0, i64 %1
  ret ptr %add.ptr
}

; Function Attrs: mustprogress uwtable
define { double, double } @_ZNK8QuantLib17LecuyerUniformRng4nextEv(ptr noundef nonnull align 8 dereferenceable(48) %this) #0 align 2 {
entry:
  %retval = alloca %"struct.QuantLib::Sample", align 8
  %this.addr = alloca ptr, align 8
  %k = alloca i64, align 8
  %j = alloca i32, align 4
  %result = alloca double, align 8
  store ptr %this, ptr %this.addr, align 8, !tbaa !3
  %this1 = load ptr, ptr %this.addr, align 8
  call void @llvm.lifetime.start.p0(i64 8, ptr %k) #11
  %temp1 = getelementptr inbounds nuw %"class.QuantLib::LecuyerUniformRng", ptr %this1, i32 0, i32 0
  %0 = load i64, ptr %temp1, align 8, !tbaa !9
  %div = sdiv i64 %0, 53668
  store i64 %div, ptr %k, align 8, !tbaa !7
  %temp12 = getelementptr inbounds nuw %"class.QuantLib::LecuyerUniformRng", ptr %this1, i32 0, i32 0
  %1 = load i64, ptr %temp12, align 8, !tbaa !9
  %2 = load i64, ptr %k, align 8, !tbaa !7
  %mul = mul nsw i64 %2, 53668
  %sub = sub nsw i64 %1, %mul
  %mul3 = mul nsw i64 40014, %sub
  %3 = load i64, ptr %k, align 8, !tbaa !7
  %mul4 = mul nsw i64 %3, 12211
  %sub5 = sub nsw i64 %mul3, %mul4
  %temp16 = getelementptr inbounds nuw %"class.QuantLib::LecuyerUniformRng", ptr %this1, i32 0, i32 0
  store i64 %sub5, ptr %temp16, align 8, !tbaa !9
  %temp17 = getelementptr inbounds nuw %"class.QuantLib::LecuyerUniformRng", ptr %this1, i32 0, i32 0
  %4 = load i64, ptr %temp17, align 8, !tbaa !9
  %cmp = icmp slt i64 %4, 0
  br i1 %cmp, label %if.then, label %if.end

if.then:                                          ; preds = %entry
  %temp18 = getelementptr inbounds nuw %"class.QuantLib::LecuyerUniformRng", ptr %this1, i32 0, i32 0
  %5 = load i64, ptr %temp18, align 8, !tbaa !9
  %add = add nsw i64 %5, 2147483563
  store i64 %add, ptr %temp18, align 8, !tbaa !9
  br label %if.end

if.end:                                           ; preds = %if.then, %entry
  %temp2 = getelementptr inbounds nuw %"class.QuantLib::LecuyerUniformRng", ptr %this1, i32 0, i32 1
  %6 = load i64, ptr %temp2, align 8, !tbaa !15
  %div9 = sdiv i64 %6, 52774
  store i64 %div9, ptr %k, align 8, !tbaa !7
  %temp210 = getelementptr inbounds nuw %"class.QuantLib::LecuyerUniformRng", ptr %this1, i32 0, i32 1
  %7 = load i64, ptr %temp210, align 8, !tbaa !15
  %8 = load i64, ptr %k, align 8, !tbaa !7
  %mul11 = mul nsw i64 %8, 52774
  %sub12 = sub nsw i64 %7, %mul11
  %mul13 = mul nsw i64 40692, %sub12
  %9 = load i64, ptr %k, align 8, !tbaa !7
  %mul14 = mul nsw i64 %9, 3791
  %sub15 = sub nsw i64 %mul13, %mul14
  %temp216 = getelementptr inbounds nuw %"class.QuantLib::LecuyerUniformRng", ptr %this1, i32 0, i32 1
  store i64 %sub15, ptr %temp216, align 8, !tbaa !15
  %temp217 = getelementptr inbounds nuw %"class.QuantLib::LecuyerUniformRng", ptr %this1, i32 0, i32 1
  %10 = load i64, ptr %temp217, align 8, !tbaa !15
  %cmp18 = icmp slt i64 %10, 0
  br i1 %cmp18, label %if.then19, label %if.end22

if.then19:                                        ; preds = %if.end
  %temp220 = getelementptr inbounds nuw %"class.QuantLib::LecuyerUniformRng", ptr %this1, i32 0, i32 1
  %11 = load i64, ptr %temp220, align 8, !tbaa !15
  %add21 = add nsw i64 %11, 2147483399
  store i64 %add21, ptr %temp220, align 8, !tbaa !15
  br label %if.end22

if.end22:                                         ; preds = %if.then19, %if.end
  call void @llvm.lifetime.start.p0(i64 4, ptr %j) #11
  %y = getelementptr inbounds nuw %"class.QuantLib::LecuyerUniformRng", ptr %this1, i32 0, i32 2
  %12 = load i64, ptr %y, align 8, !tbaa !20
  %div23 = sdiv i64 %12, 67108862
  %conv = trunc i64 %div23 to i32
  store i32 %conv, ptr %j, align 4, !tbaa !16
  %buffer = getelementptr inbounds nuw %"class.QuantLib::LecuyerUniformRng", ptr %this1, i32 0, i32 3
  %13 = load i32, ptr %j, align 4, !tbaa !16
  %conv24 = sext i32 %13 to i64
  %call = call noundef nonnull align 8 dereferenceable(8) ptr @_ZNSt6vectorIlSaIlEEixEm(ptr noundef nonnull align 8 dereferenceable(24) %buffer, i64 noundef %conv24) #11
  %14 = load i64, ptr %call, align 8, !tbaa !7
  %temp225 = getelementptr inbounds nuw %"class.QuantLib::LecuyerUniformRng", ptr %this1, i32 0, i32 1
  %15 = load i64, ptr %temp225, align 8, !tbaa !15
  %sub26 = sub nsw i64 %14, %15
  %y27 = getelementptr inbounds nuw %"class.QuantLib::LecuyerUniformRng", ptr %this1, i32 0, i32 2
  store i64 %sub26, ptr %y27, align 8, !tbaa !20
  %temp128 = getelementptr inbounds nuw %"class.QuantLib::LecuyerUniformRng", ptr %this1, i32 0, i32 0
  %16 = load i64, ptr %temp128, align 8, !tbaa !9
  %buffer29 = getelementptr inbounds nuw %"class.QuantLib::LecuyerUniformRng", ptr %this1, i32 0, i32 3
  %17 = load i32, ptr %j, align 4, !tbaa !16
  %conv30 = sext i32 %17 to i64
  %call31 = call noundef nonnull align 8 dereferenceable(8) ptr @_ZNSt6vectorIlSaIlEEixEm(ptr noundef nonnull align 8 dereferenceable(24) %buffer29, i64 noundef %conv30) #11
  store i64 %16, ptr %call31, align 8, !tbaa !7
  %y32 = getelementptr inbounds nuw %"class.QuantLib::LecuyerUniformRng", ptr %this1, i32 0, i32 2
  %18 = load i64, ptr %y32, align 8, !tbaa !20
  %cmp33 = icmp slt i64 %18, 1
  br i1 %cmp33, label %if.then34, label %if.end37

if.then34:                                        ; preds = %if.end22
  %y35 = getelementptr inbounds nuw %"class.QuantLib::LecuyerUniformRng", ptr %this1, i32 0, i32 2
  %19 = load i64, ptr %y35, align 8, !tbaa !20
  %add36 = add nsw i64 %19, 2147483562
  store i64 %add36, ptr %y35, align 8, !tbaa !20
  br label %if.end37

if.end37:                                         ; preds = %if.then34, %if.end22
  call void @llvm.lifetime.start.p0(i64 8, ptr %result) #11
  %y38 = getelementptr inbounds nuw %"class.QuantLib::LecuyerUniformRng", ptr %this1, i32 0, i32 2
  %20 = load i64, ptr %y38, align 8, !tbaa !20
  %conv39 = sitofp i64 %20 to double
  %div40 = fdiv double %conv39, 0x41DFFFFFEAC00000
  store double %div40, ptr %result, align 8, !tbaa !24
  %21 = load double, ptr %result, align 8, !tbaa !24
  %conv41 = fpext double %21 to x86_fp80
  %cmp42 = fcmp ogt x86_fp80 %conv41, 0xK3FFEFFFFFFFFFFFFF000
  br i1 %cmp42, label %if.then43, label %if.end44

if.then43:                                        ; preds = %if.end37
  store double 0x3FEFFFFFFFFFFFFE, ptr %result, align 8, !tbaa !24
  br label %if.end44

if.end44:                                         ; preds = %if.then43, %if.end37
  %22 = load double, ptr %result, align 8, !tbaa !24
  call void @_ZN8QuantLib6SampleIdEC2Edd(ptr noundef nonnull align 8 dereferenceable(16) %retval, double noundef %22, double noundef 1.000000e+00)
  call void @llvm.lifetime.end.p0(i64 8, ptr %result) #11
  call void @llvm.lifetime.end.p0(i64 4, ptr %j) #11
  call void @llvm.lifetime.end.p0(i64 8, ptr %k) #11
  %23 = load { double, double }, ptr %retval, align 8
  ret { double, double } %23
}