; Function Attrs: mustprogress nofree norecurse nosync nounwind willreturn memory(readwrite, inaccessiblemem: none) uwtable
define { double, double } @_ZNK8QuantLib17LecuyerUniformRng4nextEv(ptr nocapture noundef nonnull align 8 dereferenceable(48) %this) local_unnamed_addr #2 align 2 {
entry:
  %0 = load i64, ptr %this, align 8, !tbaa !11
  %div = sdiv i64 %0, 53668
  %mul.neg = mul nsw i64 %div, -53668
  %sub = add i64 %mul.neg, %0
  %mul3 = mul nsw i64 %sub, 40014
  %mul4.neg = mul nsw i64 %div, -12211
  %sub5 = add i64 %mul3, %mul4.neg
  %cmp = icmp slt i64 %sub5, 0
  %add = add nsw i64 %sub5, 2147483563
  %spec.select = select i1 %cmp, i64 %add, i64 %sub5
  store i64 %spec.select, ptr %this, align 8, !tbaa !11
  %temp2 = getelementptr inbounds nuw i8, ptr %this, i64 8
  %1 = load i64, ptr %temp2, align 8, !tbaa !17
  %div9 = sdiv i64 %1, 52774
  %mul11.neg = mul nsw i64 %div9, -52774
  %sub12 = add i64 %mul11.neg, %1
  %mul13 = mul nsw i64 %sub12, 40692
  %mul14.neg = mul nsw i64 %div9, -3791
  %sub15 = add i64 %mul13, %mul14.neg
  %cmp18 = icmp slt i64 %sub15, 0
  %add21 = add nsw i64 %sub15, 2147483399
  %storemerge6 = select i1 %cmp18, i64 %add21, i64 %sub15
  store i64 %storemerge6, ptr %temp2, align 8, !tbaa !17
  %y = getelementptr inbounds nuw i8, ptr %this, i64 16
  %2 = load i64, ptr %y, align 8, !tbaa !19
  %div23 = sdiv i64 %2, 67108862
  %buffer = getelementptr inbounds nuw i8, ptr %this, i64 24
  %sext = shl i64 %div23, 32
  %3 = load ptr, ptr %buffer, align 8, !tbaa !3
  %4 = ashr exact i64 %sext, 29
  %add.ptr.i = getelementptr inbounds nuw i8, ptr %3, i64 %4
  %5 = load i64, ptr %add.ptr.i, align 8, !tbaa !18
  %sub26 = sub nsw i64 %5, %storemerge6
  store i64 %sub26, ptr %y, align 8, !tbaa !19
  store i64 %spec.select, ptr %add.ptr.i, align 8, !tbaa !18
  %6 = load i64, ptr %y, align 8, !tbaa !19
  %cmp33 = icmp slt i64 %6, 1
  br i1 %cmp33, label %if.then34, label %if.end37

if.then34:                                        ; preds = %entry
  %add36 = add nsw i64 %6, 2147483562
  store i64 %add36, ptr %y, align 8, !tbaa !19
  br label %if.end37

if.end37:                                         ; preds = %if.then34, %entry
  %7 = phi i64 [ %add36, %if.then34 ], [ %6, %entry ]
  %conv39 = sitofp i64 %7 to double
  %div40 = fdiv double %conv39, 0x41DFFFFFEAC00000
  %cmp42 = fcmp ogt double %div40, 0x3FEFFFFFFFFFFFFE
  %result.0 = select i1 %cmp42, double 0x3FEFFFFFFFFFFFFE, double %div40
  %.fca.0.insert = insertvalue { double, double } poison, double %result.0, 0
  %.fca.1.insert = insertvalue { double, double } %.fca.0.insert, double 1.000000e+00, 1
  ret { double, double } %.fca.1.insert
}